; Function Attrs: nounwind uwtable
define internal i32 @dissect_diameter_3gpp_tmgi(ptr noundef %0, ptr noundef %1, ptr noundef %2, ptr readnone captures(none) %3) #0 {
  %5 = load i32, ptr @hf_diameter_3gpp_tmgi, align 4
  %6 = tail call ptr @proto_tree_add_item(ptr noundef %2, i32 noundef %5, ptr noundef %0, i32 noundef 0, i32 noundef 6, i32 noundef 0) #3
  %7 = load i32, ptr @ett_diameter_3gpp_tmgi, align 4
  %8 = tail call ptr @proto_item_add_subtree(ptr noundef %6, i32 noundef %7) #3
  %9 = load i32, ptr @hf_diameter_mbms_service_id, align 4
  %10 = tail call ptr @proto_tree_add_item(ptr noundef %8, i32 noundef %9, ptr noundef %0, i32 noundef 0, i32 noundef 3, i32 noundef 0) #3
  %11 = tail call i32 @dissect_e212_mcc_mnc(ptr noundef %0, ptr noundef %1, ptr noundef %8, i32 noundef 3, i32 noundef 0, i32 noundef 1) #3
  ret i32 %11
}